target datalayout = "e-m:e-p270:32:32-p271:32:32-p272:64:64-i64:64-i128:128-f80:128-n8:16:32:64-S128"
target triple = "x86_64-pc-linux-gnu"

%struct._typeobject = type { %struct.PyVarObject, ptr, i64, i64, ptr, i64, ptr, ptr, ptr, ptr, ptr, ptr, ptr, ptr, ptr, ptr, ptr, ptr, ptr, i64, ptr, ptr, ptr, ptr, i64, ptr, ptr, ptr, ptr, ptr, ptr, ptr, ptr, ptr, i64, ptr, ptr, ptr, ptr, ptr, ptr, ptr, ptr, ptr, ptr, ptr, i32, ptr, ptr, i8, i16 }
%struct.PyVarObject = type { %struct._object, i64 }
%struct._object = type { %union.anon, ptr }
%union.anon = type { i64 }
%struct.mappingproxyobject = type { %struct._object, ptr }

@PyDict_Type = external global %struct._typeobject, align 8

; Function Attrs: inlinehint nounwind uwtable
define internal ptr @_Py_TYPE(ptr noundef %0) #3 {
  %2 = alloca ptr, align 8
  store ptr %0, ptr %2, align 8, !tbaa !4
  %3 = load ptr, ptr %2, align 8, !tbaa !4
  %4 = getelementptr inbounds nuw %struct._object, ptr %3, i32 0, i32 1
  %5 = load ptr, ptr %4, align 8, !tbaa !64
  ret ptr %5
}

; Function Attrs: inlinehint nounwind uwtable
define internal i32 @Py_IS_TYPE(ptr noundef %0, ptr noundef %1) #3 {
  %3 = alloca ptr, align 8
  %4 = alloca ptr, align 8
  store ptr %0, ptr %3, align 8, !tbaa !4
  store ptr %1, ptr %4, align 8, !tbaa !33
  %5 = load ptr, ptr %3, align 8, !tbaa !4
  %6 = call ptr @_Py_TYPE(ptr noundef %5)
  %7 = load ptr, ptr %4, align 8, !tbaa !33
  %8 = icmp eq ptr %6, %7
  %9 = zext i1 %8 to i32
  ret i32 %9
}

; Function Attrs: nounwind uwtable
define internal i32 @mappingproxy_contains(ptr noundef %0, ptr noundef %1) #0 {
  %3 = alloca i32, align 4
  %4 = alloca ptr, align 8
  %5 = alloca ptr, align 8
  %6 = alloca ptr, align 8
  %7 = alloca i32, align 4
  store ptr %0, ptr %4, align 8, !tbaa !4
  store ptr %1, ptr %5, align 8, !tbaa !4
  call void @llvm.lifetime.start.p0(i64 8, ptr %6) #6
  %8 = load ptr, ptr %4, align 8, !tbaa !4
  store ptr %8, ptr %6, align 8, !tbaa !9
  %9 = load ptr, ptr %6, align 8, !tbaa !9
  %10 = getelementptr inbounds nuw %struct.mappingproxyobject, ptr %9, i32 0, i32 1
  %11 = load ptr, ptr %10, align 8, !tbaa !65
  %12 = call i32 @Py_IS_TYPE(ptr noundef %11, ptr noundef @PyDict_Type)
  %13 = icmp ne i32 %12, 0
  br i1 %13, label %14, label %20

14:                                               ; preds = %2
  %15 = load ptr, ptr %6, align 8, !tbaa !9
  %16 = getelementptr inbounds nuw %struct.mappingproxyobject, ptr %15, i32 0, i32 1
  %17 = load ptr, ptr %16, align 8, !tbaa !65
  %18 = load ptr, ptr %5, align 8, !tbaa !4
  %19 = call i32 @PyDict_Contains(ptr noundef %17, ptr noundef %18)
  store i32 %19, ptr %3, align 4
  store i32 1, ptr %7, align 4
  br label %26

20:                                               ; preds = %2
  %21 = load ptr, ptr %6, align 8, !tbaa !9
  %22 = getelementptr inbounds nuw %struct.mappingproxyobject, ptr %21, i32 0, i32 1
  %23 = load ptr, ptr %22, align 8, !tbaa !65
  %24 = load ptr, ptr %5, align 8, !tbaa !4
  %25 = call i32 @PySequence_Contains(ptr noundef %23, ptr noundef %24)
  store i32 %25, ptr %3, align 4
  store i32 1, ptr %7, align 4
  br label %26

26:                                               ; preds = %20, %14
  call void @llvm.lifetime.end.p0(i64 8, ptr %6) #6
  %27 = load i32, ptr %3, align 4
  ret i32 %27
}