; Function Attrs: nounwind uwtable
define internal i32 @mappingproxy_contains(ptr noundef readonly captures(none) %0, ptr noundef %1) #0 {
  %3 = getelementptr inbounds nuw i8, ptr %0, i64 16
  %4 = load ptr, ptr %3, align 8, !tbaa !148
  %5 = getelementptr i8, ptr %4, i64 8
  %.val = load ptr, ptr %5, align 8, !tbaa !19
  %.not = icmp eq ptr %.val, @PyDict_Type
  br i1 %.not, label %6, label %8

6:                                                ; preds = %2
  %7 = tail call i32 @PyDict_Contains(ptr noundef nonnull %4, ptr noundef %1) #9
  br label %10

8:                                                ; preds = %2
  %9 = tail call i32 @PySequence_Contains(ptr noundef nonnull %4, ptr noundef %1) #9
  br label %10

10:                                               ; preds = %8, %6
  %.0 = phi i32 [ %7, %6 ], [ %9, %8 ]
  ret i32 %.0
}